Certificate:
    Data:
        Version: 3 (0x2)
        Serial Number:
            58:9f:94:3f:e1:11:6e:12:37:57:97:84:88:25:22:c0
        Signature Algorithm: sha256WithRSAEncryption
        Issuer: CN=Easy-RSA CA
        Validity
            Not Before: Jan 27 18:41:55 2023 GMT
            Not After : Jan 11 18:41:55 2026 GMT
        Subject: CN=client1
        Subject Public Key Info:
            Public Key Algorithm: rsaEncryption
                RSA Public-Key: (2048 bit)
                Modulus:
                    00:d7:ee:53:58:9e:95:ad:23:25:05:89:e0:50:26:
                    12:ed:71:de:07:58:b6:14:e1:b6:d6:a6:d5:13:85:
                    cd:c2:ca:7d:2f:57:56:26:20:ee:58:d3:06:e4:71:
                    c5:bc:61:ff:12:cd:f4:de:94:98:d3:81:4e:12:55:
                    87:96:8c:2c:63:2f:0f:fd:8e:8f:c3:f2:b4:ea:e9:
                    39:93:f7:30:66:e6:33:9f:4e:6b:cc:93:b5:68:f8:
                    2f:2b:db:69:d5:9c:50:4e:57:2b:eb:9e:bb:77:b1:
                    d0:11:a3:05:86:55:eb:f6:c5:ed:69:a6:1f:4f:d5:
                    d2:15:c0:90:6d:3d:e0:5e:eb:ba:c1:9b:11:13:67:
                    de:dc:c2:2d:ec:79:38:a9:97:7e:e7:f1:f5:44:5f:
                    6f:85:24:94:50:2d:5b:8d:94:5a:19:94:02:f8:08:
                    5b:1a:f6:43:e2:a5:6b:96:77:34:4e:5e:0e:d0:1a:
                    b0:e9:d0:20:b2:e1:77:8d:fa:9c:b1:de:93:2d:0b:
                    66:4c:e1:8d:a4:58:00:93:c3:cc:74:9a:05:95:2f:
                    8b:63:e3:29:13:23:e5:83:2a:24:67:b1:2d:47:91:
                    08:db:fa:ed:28:13:44:80:3b:36:f2:49:32:e6:b4:
                    81:07:e1:06:6a:f8:69:8b:75:c1:4f:79:6e:4f:5d:
                    fb:bd
                Exponent: 65537 (0x10001)
        X509v3 extensions:
            X509v3 Basic Constraints: 
                CA:FALSE
            X509v3 Subject Key Identifier: 
                EF:4E:66:D1:54:92:D2:28:39:1B:2D:66:AC:99:53:11:94:A4:56:07
            X509v3 Authority Key Identifier: 
                keyid:0B:DF:DB:29:2D:20:F2:69:55:07:22:16:71:4F:BC:DE:15:3A:69:B4
                DirName:/CN=Easy-RSA CA
                serial:63:95:1A:9F:54:BF:EE:90:C1:68:24:5D:2D:7C:DB:B7:BA:64:4D:90

            X509v3 Extended Key Usage: 
                TLS Web Client Authentication
            X509v3 Key Usage: 
                Digital Signature
    Signature Algorithm: sha256WithRSAEncryption
         81:83:ee:29:38:f7:87:e7:86:ef:c7:b7:59:05:04:ff:a9:fd:
         86:8e:25:12:3c:a1:03:a5:87:32:3d:be:b6:4a:9d:32:d1:71:
         78:3e:20:3c:8a:7c:3b:79:b4:43:4e:23:4e:98:4f:ec:02:f0:
         3f:5f:15:96:82:78:5f:a6:e0:8a:aa:c2:cb:03:ad:98:fa:fc:
         65:2e:88:34:b9:33:2b:16:51:3c:f6:a0:65:f7:61:a5:6a:ec:
         47:42:a9:45:a0:88:3c:56:b2:f2:32:f5:5f:41:0f:2c:b7:55:
         29:a1:a7:b8:45:dc:d1:a6:ea:22:a0:6c:84:52:4b:fb:2c:b1:
         34:ad:15:a8:c3:93:49:30:e2:d0:86:4e:5e:bd:5f:61:02:5f:
         0e:d7:4e:f2:a8:b9:6a:dc:32:75:c1:b2:91:9e:e5:81:63:47:
         34:13:88:2b:84:d9:c2:ab:9e:0a:53:5c:20:26:ec:0c:89:0c:
         a0:85:2d:a0:06:4f:7f:3e:91:ab:f4:95:ed:ce:e9:4e:03:fc:
         75:da:2b:cb:a8:4a:c8:45:e3:59:73:a0:32:e6:09:e1:4a:73:
         58:7c:c4:63:a4:15:25:f5:3a:23:e9:b3:5f:fd:55:87:39:4c:
         25:d1:2c:21:60:af:84:40:60:07:b5:d2:c9:ce:cc:17:28:3f:
         3b:15:f8:8f
-----BEGIN CERTIFICATE-----
MIIDVTCCAj2gAwIBAgIQWJ+UP+ERbhI3V5eEiCUiwDANBgkqhkiG9w0BAQsFADAW
MRQwEgYDVQQDDAtFYXN5LVJTQSBDQTAeFw0yMzAxMjcxODQxNTVaFw0yNjAxMTEx
ODQxNTVaMBIxEDAOBgNVBAMMB2NsaWVudDEwggEiMA0GCSqGSIb3DQEBAQUAA4IB
DwAwggEKAoIBAQDX7lNYnpWtIyUFieBQJhLtcd4HWLYU4bbWptUThc3Cyn0vV1Ym
IO5Y0wbkccW8Yf8SzfTelJjTgU4SVYeWjCxjLw/9jo/D8rTq6TmT9zBm5jOfTmvM
k7Vo+C8r22nVnFBOVyvrnrt3sdARowWGVev2xe1pph9P1dIVwJBtPeBe67rBmxET
Z97cwi3seTipl37n8fVEX2+FJJRQLVuNlFoZlAL4CFsa9kPipWuWdzROXg7QGrDp
0CCy4XeN+pyx3pMtC2ZM4Y2kWACTw8x0mgWVL4tj4ykTI+WDKiRnsS1HkQjb+u0o
E0SAOzbySTLmtIEH4QZq+GmLdcFPeW5PXfu9AgMBAAGjgaIwgZ8wCQYDVR0TBAIw
ADAdBgNVHQ4EFgQU705m0VSS0ig5Gy1mrJlTEZSkVgcwUQYDVR0jBEowSIAUC9/b
KS0g8mlVByIWcU+83hU6abShGqQYMBYxFDASBgNVBAMMC0Vhc3ktUlNBIENBghRj
lRqfVL/ukMFoJF0tfNu3umRNkDATBgNVHSUEDDAKBggrBgEFBQcDAjALBgNVHQ8E
BAMCB4AwDQYJKoZIhvcNAQELBQADggEBAIGD7ik494fnhu/Ht1kFBP+p/YaOJRI8
oQOlhzI9vrZKnTLRcXg+IDyKfDt5tENOI06YT+wC8D9fFZaCeF+m4IqqwssDrZj6
/GUuiDS5MysWUTz2oGX3YaVq7EdCqUWgiDxWsvIy9V9BDyy3VSmhp7hF3NGm6iKg
bIRSS/sssTStFajDk0kw4tCGTl69X2ECXw7XTvKouWrcMnXBspGe5YFjRzQTiCuE
2cKrngpTXCAm7AyJDKCFLaAGT38+kav0le3O6U4D/HXaK8uoSshF41lzoDLmCeFK
c1h8xGOkFSX1OiPps1/9VYc5TCXRLCFgr4RAYAe10snOzBcoPzsV+I8=
-----END CERTIFICATE-----
